
_ls:     file format elf32-i386


Disassembly of section .text:

00000000 <main>:
  close(fd);
}

int
main(int argc, char *argv[])
{
   0:	8d 4c 24 04          	lea    0x4(%esp),%ecx
   4:	83 e4 f0             	and    $0xfffffff0,%esp
   7:	ff 71 fc             	pushl  -0x4(%ecx)
   a:	55                   	push   %ebp
   b:	89 e5                	mov    %esp,%ebp
   d:	57                   	push   %edi
   e:	56                   	push   %esi
   f:	53                   	push   %ebx
  10:	51                   	push   %ecx
  11:	bb 01 00 00 00       	mov    $0x1,%ebx
  16:	83 ec 08             	sub    $0x8,%esp
  19:	8b 31                	mov    (%ecx),%esi
  1b:	8b 79 04             	mov    0x4(%ecx),%edi
  int i;

  if(argc < 2){
  1e:	83 fe 01             	cmp    $0x1,%esi
  21:	7e 1f                	jle    42 <main+0x42>
  23:	90                   	nop
  24:	8d 74 26 00          	lea    0x0(%esi,%eiz,1),%esi
    ls(".");
    exit();
  }
  for(i=1; i<argc; i++)
    ls(argv[i]);
  28:	83 ec 0c             	sub    $0xc,%esp
  2b:	ff 34 9f             	pushl  (%edi,%ebx,4)

  if(argc < 2){
    ls(".");
    exit();
  }
  for(i=1; i<argc; i++)
  2e:	83 c3 01             	add    $0x1,%ebx
    ls(argv[i]);
  31:	e8 ca 00 00 00       	call   100 <ls>

  if(argc < 2){
    ls(".");
    exit();
  }
  for(i=1; i<argc; i++)
  36:	83 c4 10             	add    $0x10,%esp
  39:	39 de                	cmp    %ebx,%esi
  3b:	75 eb                	jne    28 <main+0x28>
    ls(argv[i]);
  exit();
  3d:	e8 90 05 00 00       	call   5d2 <exit>
main(int argc, char *argv[])
{
  int i;

  if(argc < 2){
    ls(".");
  42:	83 ec 0c             	sub    $0xc,%esp
  45:	68 b8 0a 00 00       	push   $0xab8
  4a:	e8 b1 00 00 00       	call   100 <ls>
    exit();
  4f:	e8 7e 05 00 00       	call   5d2 <exit>
  54:	66 90                	xchg   %ax,%ax
  56:	66 90                	xchg   %ax,%ax
  58:	66 90                	xchg   %ax,%ax
  5a:	66 90                	xchg   %ax,%ax
  5c:	66 90                	xchg   %ax,%ax
  5e:	66 90                	xchg   %ax,%ax

00000060 <fmtname>:
#include "user.h"
#include "fs.h"

char*
fmtname(char *path)
{
  60:	55                   	push   %ebp
  61:	89 e5                	mov    %esp,%ebp
  63:	56                   	push   %esi
  64:	53                   	push   %ebx
  65:	8b 5d 08             	mov    0x8(%ebp),%ebx
  static char buf[DIRSIZ+1];
  char *p;

  // Find first character after last slash.
  for(p=path+strlen(path); p >= path && *p != '/'; p--)
  68:	83 ec 0c             	sub    $0xc,%esp
  6b:	53                   	push   %ebx
  6c:	e8 9f 03 00 00       	call   410 <strlen>
  71:	83 c4 10             	add    $0x10,%esp
  74:	01 d8                	add    %ebx,%eax
  76:	73 0f                	jae    87 <fmtname+0x27>
  78:	eb 12                	jmp    8c <fmtname+0x2c>
  7a:	8d b6 00 00 00 00    	lea    0x0(%esi),%esi
  80:	83 e8 01             	sub    $0x1,%eax
  83:	39 c3                	cmp    %eax,%ebx
  85:	77 05                	ja     8c <fmtname+0x2c>
  87:	80 38 2f             	cmpb   $0x2f,(%eax)
  8a:	75 f4                	jne    80 <fmtname+0x20>
    ;
  p++;
  8c:	8d 58 01             	lea    0x1(%eax),%ebx

  // Return blank-padded name.
  if(strlen(p) >= DIRSIZ)
  8f:	83 ec 0c             	sub    $0xc,%esp
  92:	53                   	push   %ebx
  93:	e8 78 03 00 00       	call   410 <strlen>
  98:	83 c4 10             	add    $0x10,%esp
  9b:	83 f8 0d             	cmp    $0xd,%eax
  9e:	77 4a                	ja     ea <fmtname+0x8a>
    return p;
  memmove(buf, p, strlen(p));
  a0:	83 ec 0c             	sub    $0xc,%esp
  a3:	53                   	push   %ebx
  a4:	e8 67 03 00 00       	call   410 <strlen>
  a9:	83 c4 0c             	add    $0xc,%esp
  ac:	50                   	push   %eax
  ad:	53                   	push   %ebx
  ae:	68 d0 0d 00 00       	push   $0xdd0
  b3:	e8 e8 04 00 00       	call   5a0 <memmove>
  memset(buf+strlen(p), ' ', DIRSIZ-strlen(p));
  b8:	89 1c 24             	mov    %ebx,(%esp)
  bb:	e8 50 03 00 00       	call   410 <strlen>
  c0:	89 1c 24             	mov    %ebx,(%esp)
  c3:	89 c6                	mov    %eax,%esi
  return buf;
  c5:	bb d0 0d 00 00       	mov    $0xdd0,%ebx

  // Return blank-padded name.
  if(strlen(p) >= DIRSIZ)
    return p;
  memmove(buf, p, strlen(p));
  memset(buf+strlen(p), ' ', DIRSIZ-strlen(p));
  ca:	e8 41 03 00 00       	call   410 <strlen>
  cf:	ba 0e 00 00 00       	mov    $0xe,%edx
  d4:	83 c4 0c             	add    $0xc,%esp
  d7:	05 d0 0d 00 00       	add    $0xdd0,%eax
  dc:	29 f2                	sub    %esi,%edx
  de:	52                   	push   %edx
  df:	6a 20                	push   $0x20
  e1:	50                   	push   %eax
  e2:	e8 59 03 00 00       	call   440 <memset>
  return buf;
  e7:	83 c4 10             	add    $0x10,%esp
}
  ea:	8d 65 f8             	lea    -0x8(%ebp),%esp
  ed:	89 d8                	mov    %ebx,%eax
  ef:	5b                   	pop    %ebx
  f0:	5e                   	pop    %esi
  f1:	5d                   	pop    %ebp
  f2:	c3                   	ret    
  f3:	8d b6 00 00 00 00    	lea    0x0(%esi),%esi
  f9:	8d bc 27 00 00 00 00 	lea    0x0(%edi,%eiz,1),%edi

00000100 <ls>:

void
ls(char *path)
{
 100:	55                   	push   %ebp
 101:	89 e5                	mov    %esp,%ebp
 103:	57                   	push   %edi
 104:	56                   	push   %esi
 105:	53                   	push   %ebx
 106:	81 ec 64 02 00 00    	sub    $0x264,%esp
 10c:	8b 7d 08             	mov    0x8(%ebp),%edi
  char buf[512], *p;
  int fd;
  struct dirent de;
  struct stat st;

  if((fd = open(path, 0)) < 0){
 10f:	6a 00                	push   $0x0
 111:	57                   	push   %edi
 112:	e8 fb 04 00 00       	call   612 <open>
 117:	83 c4 10             	add    $0x10,%esp
 11a:	85 c0                	test   %eax,%eax
 11c:	0f 88 9e 01 00 00    	js     2c0 <ls+0x1c0>
    printf(2, "ls: cannot open %s\n", path);
    return;
  }

  if(fstat(fd, &st) < 0){
 122:	8d b5 d4 fd ff ff    	lea    -0x22c(%ebp),%esi
 128:	83 ec 08             	sub    $0x8,%esp
 12b:	89 c3                	mov    %eax,%ebx
 12d:	56                   	push   %esi
 12e:	50                   	push   %eax
 12f:	e8 f6 04 00 00       	call   62a <fstat>
 134:	83 c4 10             	add    $0x10,%esp
 137:	85 c0                	test   %eax,%eax
 139:	0f 88 c1 01 00 00    	js     300 <ls+0x200>
    printf(2, "ls: cannot stat %s\n", path);
    close(fd);
    return;
  }

  switch(st.type){
 13f:	0f b7 85 d4 fd ff ff 	movzwl -0x22c(%ebp),%eax
 146:	66 83 f8 01          	cmp    $0x1,%ax
 14a:	74 54                	je     1a0 <ls+0xa0>
 14c:	66 83 f8 02          	cmp    $0x2,%ax
 150:	75 37                	jne    189 <ls+0x89>
  case T_FILE:
    printf(1, "%s %d %d %d\n", fmtname(path), st.type, st.ino, st.size);
 152:	83 ec 0c             	sub    $0xc,%esp
 155:	8b 95 e4 fd ff ff    	mov    -0x21c(%ebp),%edx
 15b:	8b b5 dc fd ff ff    	mov    -0x224(%ebp),%esi
 161:	57                   	push   %edi
 162:	89 95 b4 fd ff ff    	mov    %edx,-0x24c(%ebp)
 168:	e8 f3 fe ff ff       	call   60 <fmtname>
 16d:	8b 95 b4 fd ff ff    	mov    -0x24c(%ebp),%edx
 173:	59                   	pop    %ecx
 174:	5f                   	pop    %edi
 175:	52                   	push   %edx
 176:	56                   	push   %esi
 177:	6a 02                	push   $0x2
 179:	50                   	push   %eax
 17a:	68 98 0a 00 00       	push   $0xa98
 17f:	6a 01                	push   $0x1
 181:	e8 ca 05 00 00       	call   750 <printf>
    break;
 186:	83 c4 20             	add    $0x20,%esp
      }
      printf(1, "%s %d %d %d\n", fmtname(buf), st.type, st.ino, st.size);
    }
    break;
  }
  close(fd);
 189:	83 ec 0c             	sub    $0xc,%esp
 18c:	53                   	push   %ebx
 18d:	e8 68 04 00 00       	call   5fa <close>
 192:	83 c4 10             	add    $0x10,%esp
}
 195:	8d 65 f4             	lea    -0xc(%ebp),%esp
 198:	5b                   	pop    %ebx
 199:	5e                   	pop    %esi
 19a:	5f                   	pop    %edi
 19b:	5d                   	pop    %ebp
 19c:	c3                   	ret    
 19d:	8d 76 00             	lea    0x0(%esi),%esi
  case T_FILE:
    printf(1, "%s %d %d %d\n", fmtname(path), st.type, st.ino, st.size);
    break;

  case T_DIR:
    if(strlen(path) + 1 + DIRSIZ + 1 > sizeof buf){
 1a0:	83 ec 0c             	sub    $0xc,%esp
 1a3:	57                   	push   %edi
 1a4:	e8 67 02 00 00       	call   410 <strlen>
 1a9:	83 c0 10             	add    $0x10,%eax
 1ac:	83 c4 10             	add    $0x10,%esp
 1af:	3d 00 02 00 00       	cmp    $0x200,%eax
 1b4:	0f 87 26 01 00 00    	ja     2e0 <ls+0x1e0>
      printf(1, "ls: path too long\n");
      break;
    }
    strcpy(buf, path);
 1ba:	8d 85 e8 fd ff ff    	lea    -0x218(%ebp),%eax
 1c0:	83 ec 08             	sub    $0x8,%esp
 1c3:	57                   	push   %edi
 1c4:	8d bd c4 fd ff ff    	lea    -0x23c(%ebp),%edi
 1ca:	50                   	push   %eax
 1cb:	e8 70 01 00 00       	call   340 <strcpy>
    p = buf+strlen(buf);
 1d0:	8d 85 e8 fd ff ff    	lea    -0x218(%ebp),%eax
 1d6:	89 04 24             	mov    %eax,(%esp)
 1d9:	e8 32 02 00 00       	call   410 <strlen>
 1de:	8d 95 e8 fd ff ff    	lea    -0x218(%ebp),%edx
    *p++ = '/';
    while(read(fd, &de, sizeof(de)) == sizeof(de)){
 1e4:	83 c4 10             	add    $0x10,%esp
    if(strlen(path) + 1 + DIRSIZ + 1 > sizeof buf){
      printf(1, "ls: path too long\n");
      break;
    }
    strcpy(buf, path);
    p = buf+strlen(buf);
 1e7:	8d 0c 02             	lea    (%edx,%eax,1),%ecx
    *p++ = '/';
 1ea:	8d 84 05 e9 fd ff ff 	lea    -0x217(%ebp,%eax,1),%eax
    if(strlen(path) + 1 + DIRSIZ + 1 > sizeof buf){
      printf(1, "ls: path too long\n");
      break;
    }
    strcpy(buf, path);
    p = buf+strlen(buf);
 1f1:	89 8d a8 fd ff ff    	mov    %ecx,-0x258(%ebp)
    *p++ = '/';
 1f7:	89 85 a4 fd ff ff    	mov    %eax,-0x25c(%ebp)
 1fd:	c6 01 2f             	movb   $0x2f,(%ecx)
    while(read(fd, &de, sizeof(de)) == sizeof(de)){
 200:	83 ec 04             	sub    $0x4,%esp
 203:	6a 10                	push   $0x10
 205:	57                   	push   %edi
 206:	53                   	push   %ebx
 207:	e8 de 03 00 00       	call   5ea <read>
 20c:	83 c4 10             	add    $0x10,%esp
 20f:	83 f8 10             	cmp    $0x10,%eax
 212:	0f 85 71 ff ff ff    	jne    189 <ls+0x89>
      if(de.inum == 0)
 218:	66 83 bd c4 fd ff ff 	cmpw   $0x0,-0x23c(%ebp)
 21f:	00 
 220:	74 de                	je     200 <ls+0x100>
        continue;
      memmove(p, de.name, DIRSIZ);
 222:	8d 85 c6 fd ff ff    	lea    -0x23a(%ebp),%eax
 228:	83 ec 04             	sub    $0x4,%esp
 22b:	6a 0e                	push   $0xe
 22d:	50                   	push   %eax
 22e:	ff b5 a4 fd ff ff    	pushl  -0x25c(%ebp)
 234:	e8 67 03 00 00       	call   5a0 <memmove>
      p[DIRSIZ] = 0;
 239:	8b 85 a8 fd ff ff    	mov    -0x258(%ebp),%eax
 23f:	c6 40 0f 00          	movb   $0x0,0xf(%eax)
      if(stat(buf, &st) < 0){
 243:	58                   	pop    %eax
 244:	8d 85 e8 fd ff ff    	lea    -0x218(%ebp),%eax
 24a:	5a                   	pop    %edx
 24b:	56                   	push   %esi
 24c:	50                   	push   %eax
 24d:	e8 be 02 00 00       	call   510 <stat>
 252:	83 c4 10             	add    $0x10,%esp
 255:	85 c0                	test   %eax,%eax
 257:	0f 88 c3 00 00 00    	js     320 <ls+0x220>
        printf(1, "ls: cannot stat %s\n", buf);
        continue;
      }
      printf(1, "%s %d %d %d\n", fmtname(buf), st.type, st.ino, st.size);
 25d:	8b 8d e4 fd ff ff    	mov    -0x21c(%ebp),%ecx
 263:	0f bf 85 d4 fd ff ff 	movswl -0x22c(%ebp),%eax
 26a:	83 ec 0c             	sub    $0xc,%esp
 26d:	8b 95 dc fd ff ff    	mov    -0x224(%ebp),%edx
 273:	89 8d ac fd ff ff    	mov    %ecx,-0x254(%ebp)
 279:	8d 8d e8 fd ff ff    	lea    -0x218(%ebp),%ecx
 27f:	89 95 b0 fd ff ff    	mov    %edx,-0x250(%ebp)
 285:	89 85 b4 fd ff ff    	mov    %eax,-0x24c(%ebp)
 28b:	51                   	push   %ecx
 28c:	e8 cf fd ff ff       	call   60 <fmtname>
 291:	5a                   	pop    %edx
 292:	8b 95 b0 fd ff ff    	mov    -0x250(%ebp),%edx
 298:	59                   	pop    %ecx
 299:	8b 8d ac fd ff ff    	mov    -0x254(%ebp),%ecx
 29f:	51                   	push   %ecx
 2a0:	52                   	push   %edx
 2a1:	ff b5 b4 fd ff ff    	pushl  -0x24c(%ebp)
 2a7:	50                   	push   %eax
 2a8:	68 98 0a 00 00       	push   $0xa98
 2ad:	6a 01                	push   $0x1
 2af:	e8 9c 04 00 00       	call   750 <printf>
 2b4:	83 c4 20             	add    $0x20,%esp
 2b7:	e9 44 ff ff ff       	jmp    200 <ls+0x100>
 2bc:	8d 74 26 00          	lea    0x0(%esi,%eiz,1),%esi
  int fd;
  struct dirent de;
  struct stat st;

  if((fd = open(path, 0)) < 0){
    printf(2, "ls: cannot open %s\n", path);
 2c0:	83 ec 04             	sub    $0x4,%esp
 2c3:	57                   	push   %edi
 2c4:	68 70 0a 00 00       	push   $0xa70
 2c9:	6a 02                	push   $0x2
 2cb:	e8 80 04 00 00       	call   750 <printf>
    return;
 2d0:	83 c4 10             	add    $0x10,%esp
      printf(1, "%s %d %d %d\n", fmtname(buf), st.type, st.ino, st.size);
    }
    break;
  }
  close(fd);
}
 2d3:	8d 65 f4             	lea    -0xc(%ebp),%esp
 2d6:	5b                   	pop    %ebx
 2d7:	5e                   	pop    %esi
 2d8:	5f                   	pop    %edi
 2d9:	5d                   	pop    %ebp
 2da:	c3                   	ret    
 2db:	90                   	nop
 2dc:	8d 74 26 00          	lea    0x0(%esi,%eiz,1),%esi
    printf(1, "%s %d %d %d\n", fmtname(path), st.type, st.ino, st.size);
    break;

  case T_DIR:
    if(strlen(path) + 1 + DIRSIZ + 1 > sizeof buf){
      printf(1, "ls: path too long\n");
 2e0:	83 ec 08             	sub    $0x8,%esp
 2e3:	68 a5 0a 00 00       	push   $0xaa5
 2e8:	6a 01                	push   $0x1
 2ea:	e8 61 04 00 00       	call   750 <printf>
      break;
 2ef:	83 c4 10             	add    $0x10,%esp
 2f2:	e9 92 fe ff ff       	jmp    189 <ls+0x89>
 2f7:	89 f6                	mov    %esi,%esi
 2f9:	8d bc 27 00 00 00 00 	lea    0x0(%edi,%eiz,1),%edi
    printf(2, "ls: cannot open %s\n", path);
    return;
  }

  if(fstat(fd, &st) < 0){
    printf(2, "ls: cannot stat %s\n", path);
 300:	83 ec 04             	sub    $0x4,%esp
 303:	57                   	push   %edi
 304:	68 84 0a 00 00       	push   $0xa84
 309:	6a 02                	push   $0x2
 30b:	e8 40 04 00 00       	call   750 <printf>
    close(fd);
 310:	89 1c 24             	mov    %ebx,(%esp)
 313:	e8 e2 02 00 00       	call   5fa <close>
    return;
 318:	83 c4 10             	add    $0x10,%esp
 31b:	e9 75 fe ff ff       	jmp    195 <ls+0x95>
      if(de.inum == 0)
        continue;
      memmove(p, de.name, DIRSIZ);
      p[DIRSIZ] = 0;
      if(stat(buf, &st) < 0){
        printf(1, "ls: cannot stat %s\n", buf);
 320:	8d 85 e8 fd ff ff    	lea    -0x218(%ebp),%eax
 326:	83 ec 04             	sub    $0x4,%esp
 329:	50                   	push   %eax
 32a:	68 84 0a 00 00       	push   $0xa84
 32f:	6a 01                	push   $0x1
 331:	e8 1a 04 00 00       	call   750 <printf>
        continue;
 336:	83 c4 10             	add    $0x10,%esp
 339:	e9 c2 fe ff ff       	jmp    200 <ls+0x100>
 33e:	66 90                	xchg   %ax,%ax

00000340 <strcpy>:
#include "user.h"
#include "x86.h"

char*
strcpy(char *s, const char *t)
{
 340:	55                   	push   %ebp
 341:	89 e5                	mov    %esp,%ebp
 343:	53                   	push   %ebx
 344:	8b 45 08             	mov    0x8(%ebp),%eax
 347:	8b 4d 0c             	mov    0xc(%ebp),%ecx
  char *os;

  os = s;
  while((*s++ = *t++) != 0)
 34a:	89 c2                	mov    %eax,%edx
 34c:	8d 74 26 00          	lea    0x0(%esi,%eiz,1),%esi
 350:	83 c1 01             	add    $0x1,%ecx
 353:	0f b6 59 ff          	movzbl -0x1(%ecx),%ebx
 357:	83 c2 01             	add    $0x1,%edx
 35a:	84 db                	test   %bl,%bl
 35c:	88 5a ff             	mov    %bl,-0x1(%edx)
 35f:	75 ef                	jne    350 <strcpy+0x10>
    ;
  return os;
}
 361:	5b                   	pop    %ebx
 362:	5d                   	pop    %ebp
 363:	c3                   	ret    
 364:	8d b6 00 00 00 00    	lea    0x0(%esi),%esi
 36a:	8d bf 00 00 00 00    	lea    0x0(%edi),%edi

00000370 <strcmp>:

int
strcmp(const char *p, const char *q)
{
 370:	55                   	push   %ebp
 371:	89 e5                	mov    %esp,%ebp
 373:	57                   	push   %edi
 374:	56                   	push   %esi
 375:	53                   	push   %ebx
 376:	83 ec 0c             	sub    $0xc,%esp
 379:	8b 5d 08             	mov    0x8(%ebp),%ebx
 37c:	8b 75 0c             	mov    0xc(%ebp),%esi
  while(*p && *p == *q){
 37f:	0f be 03             	movsbl (%ebx),%eax
 382:	0f be 16             	movsbl (%esi),%edx
 385:	84 c0                	test   %al,%al
 387:	74 76                	je     3ff <strcmp+0x8f>
 389:	38 c2                	cmp    %al,%dl
 38b:	89 f7                	mov    %esi,%edi
 38d:	74 0f                	je     39e <strcmp+0x2e>
 38f:	eb 38                	jmp    3c9 <strcmp+0x59>
 391:	8d b4 26 00 00 00 00 	lea    0x0(%esi,%eiz,1),%esi
 398:	38 d0                	cmp    %dl,%al
 39a:	89 fe                	mov    %edi,%esi
 39c:	75 2b                	jne    3c9 <strcmp+0x59>
    p++, q++;
	printf(2,"%c %c\n",*p,*q );
 39e:	0f be 46 01          	movsbl 0x1(%esi),%eax

int
strcmp(const char *p, const char *q)
{
  while(*p && *p == *q){
    p++, q++;
 3a2:	83 c3 01             	add    $0x1,%ebx
 3a5:	8d 7e 01             	lea    0x1(%esi),%edi
	printf(2,"%c %c\n",*p,*q );
 3a8:	50                   	push   %eax
 3a9:	0f be 03             	movsbl (%ebx),%eax
 3ac:	50                   	push   %eax
 3ad:	68 ba 0a 00 00       	push   $0xaba
 3b2:	6a 02                	push   $0x2
 3b4:	e8 97 03 00 00       	call   750 <printf>
}

int
strcmp(const char *p, const char *q)
{
  while(*p && *p == *q){
 3b9:	0f be 03             	movsbl (%ebx),%eax
 3bc:	83 c4 10             	add    $0x10,%esp
 3bf:	0f be 56 01          	movsbl 0x1(%esi),%edx
 3c3:	84 c0                	test   %al,%al
 3c5:	75 d1                	jne    398 <strcmp+0x28>
 3c7:	31 c0                	xor    %eax,%eax
    p++, q++;
	printf(2,"%c %c\n",*p,*q );
  }
  printf(2,"%d %d\n",*p,*q);
 3c9:	52                   	push   %edx
 3ca:	50                   	push   %eax
 3cb:	68 9e 0a 00 00       	push   $0xa9e
 3d0:	6a 02                	push   $0x2
 3d2:	e8 79 03 00 00       	call   750 <printf>
  printf(2,"%d\n",(uchar)*p - (uchar)*q);
 3d7:	0f b6 17             	movzbl (%edi),%edx
 3da:	0f b6 03             	movzbl (%ebx),%eax
 3dd:	83 c4 0c             	add    $0xc,%esp
 3e0:	29 d0                	sub    %edx,%eax
 3e2:	50                   	push   %eax
 3e3:	68 a1 0a 00 00       	push   $0xaa1
 3e8:	6a 02                	push   $0x2
 3ea:	e8 61 03 00 00       	call   750 <printf>
  return (uchar)*p - (uchar)*q;
 3ef:	0f b6 03             	movzbl (%ebx),%eax
 3f2:	0f b6 17             	movzbl (%edi),%edx
}
 3f5:	8d 65 f4             	lea    -0xc(%ebp),%esp
 3f8:	5b                   	pop    %ebx
 3f9:	5e                   	pop    %esi
    p++, q++;
	printf(2,"%c %c\n",*p,*q );
  }
  printf(2,"%d %d\n",*p,*q);
  printf(2,"%d\n",(uchar)*p - (uchar)*q);
  return (uchar)*p - (uchar)*q;
 3fa:	29 d0                	sub    %edx,%eax
}
 3fc:	5f                   	pop    %edi
 3fd:	5d                   	pop    %ebp
 3fe:	c3                   	ret    
}

int
strcmp(const char *p, const char *q)
{
  while(*p && *p == *q){
 3ff:	89 f7                	mov    %esi,%edi
 401:	31 c0                	xor    %eax,%eax
 403:	eb c4                	jmp    3c9 <strcmp+0x59>
 405:	8d 74 26 00          	lea    0x0(%esi,%eiz,1),%esi
 409:	8d bc 27 00 00 00 00 	lea    0x0(%edi,%eiz,1),%edi

00000410 <strlen>:
  return (uchar)*p - (uchar)*q;
}

uint
strlen(const char *s)
{
 410:	55                   	push   %ebp
 411:	89 e5                	mov    %esp,%ebp
 413:	8b 4d 08             	mov    0x8(%ebp),%ecx
  int n;

  for(n = 0; s[n]; n++)
 416:	80 39 00             	cmpb   $0x0,(%ecx)
 419:	74 12                	je     42d <strlen+0x1d>
 41b:	31 d2                	xor    %edx,%edx
 41d:	8d 76 00             	lea    0x0(%esi),%esi
 420:	83 c2 01             	add    $0x1,%edx
 423:	80 3c 11 00          	cmpb   $0x0,(%ecx,%edx,1)
 427:	89 d0                	mov    %edx,%eax
 429:	75 f5                	jne    420 <strlen+0x10>
    ;
  return n;
}
 42b:	5d                   	pop    %ebp
 42c:	c3                   	ret    
uint
strlen(const char *s)
{
  int n;

  for(n = 0; s[n]; n++)
 42d:	31 c0                	xor    %eax,%eax
    ;
  return n;
}
 42f:	5d                   	pop    %ebp
 430:	c3                   	ret    
 431:	eb 0d                	jmp    440 <memset>
 433:	90                   	nop
 434:	90                   	nop
 435:	90                   	nop
 436:	90                   	nop
 437:	90                   	nop
 438:	90                   	nop
 439:	90                   	nop
 43a:	90                   	nop
 43b:	90                   	nop
 43c:	90                   	nop
 43d:	90                   	nop
 43e:	90                   	nop
 43f:	90                   	nop

00000440 <memset>:

void*
memset(void *dst, int c, uint n)
{
 440:	55                   	push   %ebp
 441:	89 e5                	mov    %esp,%ebp
 443:	57                   	push   %edi
 444:	8b 55 08             	mov    0x8(%ebp),%edx
}

static inline void
stosb(void *addr, int data, int cnt)
{
  asm volatile("cld; rep stosb" :
 447:	8b 4d 10             	mov    0x10(%ebp),%ecx
 44a:	8b 45 0c             	mov    0xc(%ebp),%eax
 44d:	89 d7                	mov    %edx,%edi
 44f:	fc                   	cld    
 450:	f3 aa                	rep stos %al,%es:(%edi)
  stosb(dst, c, n);
  return dst;
}
 452:	89 d0                	mov    %edx,%eax
 454:	5f                   	pop    %edi
 455:	5d                   	pop    %ebp
 456:	c3                   	ret    
 457:	89 f6                	mov    %esi,%esi
 459:	8d bc 27 00 00 00 00 	lea    0x0(%edi,%eiz,1),%edi

00000460 <strchr>:

char*
strchr(const char *s, char c)
{
 460:	55                   	push   %ebp
 461:	89 e5                	mov    %esp,%ebp
 463:	53                   	push   %ebx
 464:	8b 45 08             	mov    0x8(%ebp),%eax
 467:	8b 5d 0c             	mov    0xc(%ebp),%ebx
  for(; *s; s++)
 46a:	0f b6 10             	movzbl (%eax),%edx
 46d:	84 d2                	test   %dl,%dl
 46f:	74 1d                	je     48e <strchr+0x2e>
    if(*s == c)
 471:	38 d3                	cmp    %dl,%bl
 473:	89 d9                	mov    %ebx,%ecx
 475:	75 0d                	jne    484 <strchr+0x24>
 477:	eb 17                	jmp    490 <strchr+0x30>
 479:	8d b4 26 00 00 00 00 	lea    0x0(%esi,%eiz,1),%esi
 480:	38 ca                	cmp    %cl,%dl
 482:	74 0c                	je     490 <strchr+0x30>
}

char*
strchr(const char *s, char c)
{
  for(; *s; s++)
 484:	83 c0 01             	add    $0x1,%eax
 487:	0f b6 10             	movzbl (%eax),%edx
 48a:	84 d2                	test   %dl,%dl
 48c:	75 f2                	jne    480 <strchr+0x20>
    if(*s == c)
      return (char*)s;
  return 0;
 48e:	31 c0                	xor    %eax,%eax
}
 490:	5b                   	pop    %ebx
 491:	5d                   	pop    %ebp
 492:	c3                   	ret    
 493:	8d b6 00 00 00 00    	lea    0x0(%esi),%esi
 499:	8d bc 27 00 00 00 00 	lea    0x0(%edi,%eiz,1),%edi

000004a0 <gets>:

char*
gets(char *buf, int max)
{
 4a0:	55                   	push   %ebp
 4a1:	89 e5                	mov    %esp,%ebp
 4a3:	57                   	push   %edi
 4a4:	56                   	push   %esi
 4a5:	53                   	push   %ebx
  int i, cc;
  char c;

  for(i=0; i+1 < max; ){
 4a6:	31 f6                	xor    %esi,%esi
    cc = read(0, &c, 1);
 4a8:	8d 7d e7             	lea    -0x19(%ebp),%edi
  return 0;
}

char*
gets(char *buf, int max)
{
 4ab:	83 ec 1c             	sub    $0x1c,%esp
  int i, cc;
  char c;

  for(i=0; i+1 < max; ){
 4ae:	eb 29                	jmp    4d9 <gets+0x39>
    cc = read(0, &c, 1);
 4b0:	83 ec 04             	sub    $0x4,%esp
 4b3:	6a 01                	push   $0x1
 4b5:	57                   	push   %edi
 4b6:	6a 00                	push   $0x0
 4b8:	e8 2d 01 00 00       	call   5ea <read>
    if(cc < 1)
 4bd:	83 c4 10             	add    $0x10,%esp
 4c0:	85 c0                	test   %eax,%eax
 4c2:	7e 1d                	jle    4e1 <gets+0x41>
      break;
    buf[i++] = c;
 4c4:	0f b6 45 e7          	movzbl -0x19(%ebp),%eax
 4c8:	8b 55 08             	mov    0x8(%ebp),%edx
 4cb:	89 de                	mov    %ebx,%esi
    if(c == '\n' || c == '\r')
 4cd:	3c 0a                	cmp    $0xa,%al

  for(i=0; i+1 < max; ){
    cc = read(0, &c, 1);
    if(cc < 1)
      break;
    buf[i++] = c;
 4cf:	88 44 1a ff          	mov    %al,-0x1(%edx,%ebx,1)
    if(c == '\n' || c == '\r')
 4d3:	74 1b                	je     4f0 <gets+0x50>
 4d5:	3c 0d                	cmp    $0xd,%al
 4d7:	74 17                	je     4f0 <gets+0x50>
gets(char *buf, int max)
{
  int i, cc;
  char c;

  for(i=0; i+1 < max; ){
 4d9:	8d 5e 01             	lea    0x1(%esi),%ebx
 4dc:	3b 5d 0c             	cmp    0xc(%ebp),%ebx
 4df:	7c cf                	jl     4b0 <gets+0x10>
      break;
    buf[i++] = c;
    if(c == '\n' || c == '\r')
      break;
  }
  buf[i] = '\0';
 4e1:	8b 45 08             	mov    0x8(%ebp),%eax
 4e4:	c6 04 30 00          	movb   $0x0,(%eax,%esi,1)
  return buf;
}
 4e8:	8d 65 f4             	lea    -0xc(%ebp),%esp
 4eb:	5b                   	pop    %ebx
 4ec:	5e                   	pop    %esi
 4ed:	5f                   	pop    %edi
 4ee:	5d                   	pop    %ebp
 4ef:	c3                   	ret    
      break;
    buf[i++] = c;
    if(c == '\n' || c == '\r')
      break;
  }
  buf[i] = '\0';
 4f0:	8b 45 08             	mov    0x8(%ebp),%eax
gets(char *buf, int max)
{
  int i, cc;
  char c;

  for(i=0; i+1 < max; ){
 4f3:	89 de                	mov    %ebx,%esi
      break;
    buf[i++] = c;
    if(c == '\n' || c == '\r')
      break;
  }
  buf[i] = '\0';
 4f5:	c6 04 30 00          	movb   $0x0,(%eax,%esi,1)
  return buf;
}
 4f9:	8d 65 f4             	lea    -0xc(%ebp),%esp
 4fc:	5b                   	pop    %ebx
 4fd:	5e                   	pop    %esi
 4fe:	5f                   	pop    %edi
 4ff:	5d                   	pop    %ebp
 500:	c3                   	ret    
 501:	eb 0d                	jmp    510 <stat>
 503:	90                   	nop
 504:	90                   	nop
 505:	90                   	nop
 506:	90                   	nop
 507:	90                   	nop
 508:	90                   	nop
 509:	90                   	nop
 50a:	90                   	nop
 50b:	90                   	nop
 50c:	90                   	nop
 50d:	90                   	nop
 50e:	90                   	nop
 50f:	90                   	nop

00000510 <stat>:

int
stat(const char *n, struct stat *st)
{
 510:	55                   	push   %ebp
 511:	89 e5                	mov    %esp,%ebp
 513:	56                   	push   %esi
 514:	53                   	push   %ebx
  int fd;
  int r;

  fd = open(n, O_RDONLY);
 515:	83 ec 08             	sub    $0x8,%esp
 518:	6a 00                	push   $0x0
 51a:	ff 75 08             	pushl  0x8(%ebp)
 51d:	e8 f0 00 00 00       	call   612 <open>
  if(fd < 0)
 522:	83 c4 10             	add    $0x10,%esp
 525:	85 c0                	test   %eax,%eax
 527:	78 27                	js     550 <stat+0x40>
    return -1;
  r = fstat(fd, st);
 529:	83 ec 08             	sub    $0x8,%esp
 52c:	ff 75 0c             	pushl  0xc(%ebp)
 52f:	89 c3                	mov    %eax,%ebx
 531:	50                   	push   %eax
 532:	e8 f3 00 00 00       	call   62a <fstat>
 537:	89 c6                	mov    %eax,%esi
  close(fd);
 539:	89 1c 24             	mov    %ebx,(%esp)
 53c:	e8 b9 00 00 00       	call   5fa <close>
  return r;
 541:	83 c4 10             	add    $0x10,%esp
 544:	89 f0                	mov    %esi,%eax
}
 546:	8d 65 f8             	lea    -0x8(%ebp),%esp
 549:	5b                   	pop    %ebx
 54a:	5e                   	pop    %esi
 54b:	5d                   	pop    %ebp
 54c:	c3                   	ret    
 54d:	8d 76 00             	lea    0x0(%esi),%esi
  int fd;
  int r;

  fd = open(n, O_RDONLY);
  if(fd < 0)
    return -1;
 550:	b8 ff ff ff ff       	mov    $0xffffffff,%eax
 555:	eb ef                	jmp    546 <stat+0x36>
 557:	89 f6                	mov    %esi,%esi
 559:	8d bc 27 00 00 00 00 	lea    0x0(%edi,%eiz,1),%edi

00000560 <atoi>:
  return r;
}

int
atoi(const char *s)
{
 560:	55                   	push   %ebp
 561:	89 e5                	mov    %esp,%ebp
 563:	53                   	push   %ebx
 564:	8b 4d 08             	mov    0x8(%ebp),%ecx
  int n;

  n = 0;
  while('0' <= *s && *s <= '9')
 567:	0f be 11             	movsbl (%ecx),%edx
 56a:	8d 42 d0             	lea    -0x30(%edx),%eax
 56d:	3c 09                	cmp    $0x9,%al
 56f:	b8 00 00 00 00       	mov    $0x0,%eax
 574:	77 1f                	ja     595 <atoi+0x35>
 576:	8d 76 00             	lea    0x0(%esi),%esi
 579:	8d bc 27 00 00 00 00 	lea    0x0(%edi,%eiz,1),%edi
    n = n*10 + *s++ - '0';
 580:	8d 04 80             	lea    (%eax,%eax,4),%eax
 583:	83 c1 01             	add    $0x1,%ecx
 586:	8d 44 42 d0          	lea    -0x30(%edx,%eax,2),%eax
atoi(const char *s)
{
  int n;

  n = 0;
  while('0' <= *s && *s <= '9')
 58a:	0f be 11             	movsbl (%ecx),%edx
 58d:	8d 5a d0             	lea    -0x30(%edx),%ebx
 590:	80 fb 09             	cmp    $0x9,%bl
 593:	76 eb                	jbe    580 <atoi+0x20>
    n = n*10 + *s++ - '0';
  return n;
}
 595:	5b                   	pop    %ebx
 596:	5d                   	pop    %ebp
 597:	c3                   	ret    
 598:	90                   	nop
 599:	8d b4 26 00 00 00 00 	lea    0x0(%esi,%eiz,1),%esi

000005a0 <memmove>:

void*
memmove(void *vdst, const void *vsrc, int n)
{
 5a0:	55                   	push   %ebp
 5a1:	89 e5                	mov    %esp,%ebp
 5a3:	56                   	push   %esi
 5a4:	53                   	push   %ebx
 5a5:	8b 5d 10             	mov    0x10(%ebp),%ebx
 5a8:	8b 45 08             	mov    0x8(%ebp),%eax
 5ab:	8b 75 0c             	mov    0xc(%ebp),%esi
  char *dst;
  const char *src;

  dst = vdst;
  src = vsrc;
  while(n-- > 0)
 5ae:	85 db                	test   %ebx,%ebx
 5b0:	7e 14                	jle    5c6 <memmove+0x26>
 5b2:	31 d2                	xor    %edx,%edx
 5b4:	8d 74 26 00          	lea    0x0(%esi,%eiz,1),%esi
    *dst++ = *src++;
 5b8:	0f b6 0c 16          	movzbl (%esi,%edx,1),%ecx
 5bc:	88 0c 10             	mov    %cl,(%eax,%edx,1)
 5bf:	83 c2 01             	add    $0x1,%edx
  char *dst;
  const char *src;

  dst = vdst;
  src = vsrc;
  while(n-- > 0)
 5c2:	39 da                	cmp    %ebx,%edx
 5c4:	75 f2                	jne    5b8 <memmove+0x18>
    *dst++ = *src++;
  return vdst;
}
 5c6:	5b                   	pop    %ebx
 5c7:	5e                   	pop    %esi
 5c8:	5d                   	pop    %ebp
 5c9:	c3                   	ret    

000005ca <fork>:
  name: \
    movl $SYS_ ## name, %eax; \
    int $T_SYSCALL; \
    ret

SYSCALL(fork)
 5ca:	b8 01 00 00 00       	mov    $0x1,%eax
 5cf:	cd 40                	int    $0x40
 5d1:	c3                   	ret    

000005d2 <exit>:
SYSCALL(exit)
 5d2:	b8 02 00 00 00       	mov    $0x2,%eax
 5d7:	cd 40                	int    $0x40
 5d9:	c3                   	ret    

000005da <wait>:
SYSCALL(wait)
 5da:	b8 03 00 00 00       	mov    $0x3,%eax
 5df:	cd 40                	int    $0x40
 5e1:	c3                   	ret    

000005e2 <pipe>:
SYSCALL(pipe)
 5e2:	b8 04 00 00 00       	mov    $0x4,%eax
 5e7:	cd 40                	int    $0x40
 5e9:	c3                   	ret    

000005ea <read>:
SYSCALL(read)
 5ea:	b8 05 00 00 00       	mov    $0x5,%eax
 5ef:	cd 40                	int    $0x40
 5f1:	c3                   	ret    

000005f2 <write>:
SYSCALL(write)
 5f2:	b8 10 00 00 00       	mov    $0x10,%eax
 5f7:	cd 40                	int    $0x40
 5f9:	c3                   	ret    

000005fa <close>:
SYSCALL(close)
 5fa:	b8 15 00 00 00       	mov    $0x15,%eax
 5ff:	cd 40                	int    $0x40
 601:	c3                   	ret    

00000602 <kill>:
SYSCALL(kill)
 602:	b8 06 00 00 00       	mov    $0x6,%eax
 607:	cd 40                	int    $0x40
 609:	c3                   	ret    

0000060a <exec>:
SYSCALL(exec)
 60a:	b8 07 00 00 00       	mov    $0x7,%eax
 60f:	cd 40                	int    $0x40
 611:	c3                   	ret    

00000612 <open>:
SYSCALL(open)
 612:	b8 0f 00 00 00       	mov    $0xf,%eax
 617:	cd 40                	int    $0x40
 619:	c3                   	ret    

0000061a <mknod>:
SYSCALL(mknod)
 61a:	b8 11 00 00 00       	mov    $0x11,%eax
 61f:	cd 40                	int    $0x40
 621:	c3                   	ret    

00000622 <unlink>:
SYSCALL(unlink)
 622:	b8 12 00 00 00       	mov    $0x12,%eax
 627:	cd 40                	int    $0x40
 629:	c3                   	ret    

0000062a <fstat>:
SYSCALL(fstat)
 62a:	b8 08 00 00 00       	mov    $0x8,%eax
 62f:	cd 40                	int    $0x40
 631:	c3                   	ret    

00000632 <link>:
SYSCALL(link)
 632:	b8 13 00 00 00       	mov    $0x13,%eax
 637:	cd 40                	int    $0x40
 639:	c3                   	ret    

0000063a <mkdir>:
SYSCALL(mkdir)
 63a:	b8 14 00 00 00       	mov    $0x14,%eax
 63f:	cd 40                	int    $0x40
 641:	c3                   	ret    

00000642 <chdir>:
SYSCALL(chdir)
 642:	b8 09 00 00 00       	mov    $0x9,%eax
 647:	cd 40                	int    $0x40
 649:	c3                   	ret    

0000064a <dup>:
SYSCALL(dup)
 64a:	b8 0a 00 00 00       	mov    $0xa,%eax
 64f:	cd 40                	int    $0x40
 651:	c3                   	ret    

00000652 <getpid>:
SYSCALL(getpid)
 652:	b8 0b 00 00 00       	mov    $0xb,%eax
 657:	cd 40                	int    $0x40
 659:	c3                   	ret    

0000065a <sbrk>:
SYSCALL(sbrk)
 65a:	b8 0c 00 00 00       	mov    $0xc,%eax
 65f:	cd 40                	int    $0x40
 661:	c3                   	ret    

00000662 <sleep>:
SYSCALL(sleep)
 662:	b8 0d 00 00 00       	mov    $0xd,%eax
 667:	cd 40                	int    $0x40
 669:	c3                   	ret    

0000066a <uptime>:
SYSCALL(uptime)
 66a:	b8 0e 00 00 00       	mov    $0xe,%eax
 66f:	cd 40                	int    $0x40
 671:	c3                   	ret    

00000672 <yield>:
SYSCALL(yield)
 672:	b8 16 00 00 00       	mov    $0x16,%eax
 677:	cd 40                	int    $0x40
 679:	c3                   	ret    

0000067a <getlev>:
SYSCALL(getlev)
 67a:	b8 17 00 00 00       	mov    $0x17,%eax
 67f:	cd 40                	int    $0x40
 681:	c3                   	ret    

00000682 <setpriority>:
SYSCALL(setpriority)
 682:	b8 18 00 00 00       	mov    $0x18,%eax
 687:	cd 40                	int    $0x40
 689:	c3                   	ret    

0000068a <getadmin>:
SYSCALL(getadmin)
 68a:	b8 19 00 00 00       	mov    $0x19,%eax
 68f:	cd 40                	int    $0x40
 691:	c3                   	ret    

00000692 <exec2>:
SYSCALL(exec2)
 692:	b8 1a 00 00 00       	mov    $0x1a,%eax
 697:	cd 40                	int    $0x40
 699:	c3                   	ret    

0000069a <setmemorylimit>:
SYSCALL(setmemorylimit)
 69a:	b8 1b 00 00 00       	mov    $0x1b,%eax
 69f:	cd 40                	int    $0x40
 6a1:	c3                   	ret    

000006a2 <list>:
SYSCALL(list)
 6a2:	b8 1c 00 00 00       	mov    $0x1c,%eax
 6a7:	cd 40                	int    $0x40
 6a9:	c3                   	ret    
 6aa:	66 90                	xchg   %ax,%ax
 6ac:	66 90                	xchg   %ax,%ax
 6ae:	66 90                	xchg   %ax,%ax

000006b0 <printint>:
  write(fd, &c, 1);
}

static void
printint(int fd, int xx, int base, int sgn)
{
 6b0:	55                   	push   %ebp
 6b1:	89 e5                	mov    %esp,%ebp
 6b3:	57                   	push   %edi
 6b4:	56                   	push   %esi
 6b5:	53                   	push   %ebx
 6b6:	89 c6                	mov    %eax,%esi
 6b8:	83 ec 3c             	sub    $0x3c,%esp
  char buf[16];
  int i, neg;
  uint x;

  neg = 0;
  if(sgn && xx < 0){
 6bb:	8b 5d 08             	mov    0x8(%ebp),%ebx
 6be:	85 db                	test   %ebx,%ebx
 6c0:	74 7e                	je     740 <printint+0x90>
 6c2:	89 d0                	mov    %edx,%eax
 6c4:	c1 e8 1f             	shr    $0x1f,%eax
 6c7:	84 c0                	test   %al,%al
 6c9:	74 75                	je     740 <printint+0x90>
    neg = 1;
    x = -xx;
 6cb:	89 d0                	mov    %edx,%eax
  int i, neg;
  uint x;

  neg = 0;
  if(sgn && xx < 0){
    neg = 1;
 6cd:	c7 45 c4 01 00 00 00 	movl   $0x1,-0x3c(%ebp)
    x = -xx;
 6d4:	f7 d8                	neg    %eax
 6d6:	89 75 c0             	mov    %esi,-0x40(%ebp)
  } else {
    x = xx;
  }

  i = 0;
 6d9:	31 ff                	xor    %edi,%edi
 6db:	8d 5d d7             	lea    -0x29(%ebp),%ebx
 6de:	89 ce                	mov    %ecx,%esi
 6e0:	eb 08                	jmp    6ea <printint+0x3a>
 6e2:	8d b6 00 00 00 00    	lea    0x0(%esi),%esi
  do{
    buf[i++] = digits[x % base];
 6e8:	89 cf                	mov    %ecx,%edi
 6ea:	31 d2                	xor    %edx,%edx
 6ec:	8d 4f 01             	lea    0x1(%edi),%ecx
 6ef:	f7 f6                	div    %esi
 6f1:	0f b6 92 c8 0a 00 00 	movzbl 0xac8(%edx),%edx
  }while((x /= base) != 0);
 6f8:	85 c0                	test   %eax,%eax
    x = xx;
  }

  i = 0;
  do{
    buf[i++] = digits[x % base];
 6fa:	88 14 0b             	mov    %dl,(%ebx,%ecx,1)
  }while((x /= base) != 0);
 6fd:	75 e9                	jne    6e8 <printint+0x38>
  if(neg)
 6ff:	8b 45 c4             	mov    -0x3c(%ebp),%eax
 702:	8b 75 c0             	mov    -0x40(%ebp),%esi
 705:	85 c0                	test   %eax,%eax
 707:	74 08                	je     711 <printint+0x61>
    buf[i++] = '-';
 709:	c6 44 0d d8 2d       	movb   $0x2d,-0x28(%ebp,%ecx,1)
 70e:	8d 4f 02             	lea    0x2(%edi),%ecx
 711:	8d 7c 0d d7          	lea    -0x29(%ebp,%ecx,1),%edi
 715:	8d 76 00             	lea    0x0(%esi),%esi
 718:	0f b6 07             	movzbl (%edi),%eax
#include "user.h"

static void
putc(int fd, char c)
{
  write(fd, &c, 1);
 71b:	83 ec 04             	sub    $0x4,%esp
 71e:	83 ef 01             	sub    $0x1,%edi
 721:	6a 01                	push   $0x1
 723:	53                   	push   %ebx
 724:	56                   	push   %esi
 725:	88 45 d7             	mov    %al,-0x29(%ebp)
 728:	e8 c5 fe ff ff       	call   5f2 <write>
    buf[i++] = digits[x % base];
  }while((x /= base) != 0);
  if(neg)
    buf[i++] = '-';

  while(--i >= 0)
 72d:	83 c4 10             	add    $0x10,%esp
 730:	39 df                	cmp    %ebx,%edi
 732:	75 e4                	jne    718 <printint+0x68>
    putc(fd, buf[i]);
}
 734:	8d 65 f4             	lea    -0xc(%ebp),%esp
 737:	5b                   	pop    %ebx
 738:	5e                   	pop    %esi
 739:	5f                   	pop    %edi
 73a:	5d                   	pop    %ebp
 73b:	c3                   	ret    
 73c:	8d 74 26 00          	lea    0x0(%esi,%eiz,1),%esi
  neg = 0;
  if(sgn && xx < 0){
    neg = 1;
    x = -xx;
  } else {
    x = xx;
 740:	89 d0                	mov    %edx,%eax
  static char digits[] = "0123456789ABCDEF";
  char buf[16];
  int i, neg;
  uint x;

  neg = 0;
 742:	c7 45 c4 00 00 00 00 	movl   $0x0,-0x3c(%ebp)
 749:	eb 8b                	jmp    6d6 <printint+0x26>
 74b:	90                   	nop
 74c:	8d 74 26 00          	lea    0x0(%esi,%eiz,1),%esi

00000750 <printf>:
}

// Print to the given fd. Only understands %d, %x, %p, %s.
void
printf(int fd, const char *fmt, ...)
{
 750:	55                   	push   %ebp
 751:	89 e5                	mov    %esp,%ebp
 753:	57                   	push   %edi
 754:	56                   	push   %esi
 755:	53                   	push   %ebx
  int c, i, state;
  uint *ap;

  state = 0;
  ap = (uint*)(void*)&fmt + 1;
  for(i = 0; fmt[i]; i++){
 756:	8d 45 10             	lea    0x10(%ebp),%eax
}

// Print to the given fd. Only understands %d, %x, %p, %s.
void
printf(int fd, const char *fmt, ...)
{
 759:	83 ec 2c             	sub    $0x2c,%esp
  int c, i, state;
  uint *ap;

  state = 0;
  ap = (uint*)(void*)&fmt + 1;
  for(i = 0; fmt[i]; i++){
 75c:	8b 75 0c             	mov    0xc(%ebp),%esi
}

// Print to the given fd. Only understands %d, %x, %p, %s.
void
printf(int fd, const char *fmt, ...)
{
 75f:	8b 7d 08             	mov    0x8(%ebp),%edi
  int c, i, state;
  uint *ap;

  state = 0;
  ap = (uint*)(void*)&fmt + 1;
  for(i = 0; fmt[i]; i++){
 762:	89 45 d0             	mov    %eax,-0x30(%ebp)
 765:	0f b6 1e             	movzbl (%esi),%ebx
 768:	83 c6 01             	add    $0x1,%esi
 76b:	84 db                	test   %bl,%bl
 76d:	0f 84 b0 00 00 00    	je     823 <printf+0xd3>
 773:	31 d2                	xor    %edx,%edx
 775:	eb 39                	jmp    7b0 <printf+0x60>
 777:	89 f6                	mov    %esi,%esi
 779:	8d bc 27 00 00 00 00 	lea    0x0(%edi,%eiz,1),%edi
    c = fmt[i] & 0xff;
    if(state == 0){
      if(c == '%'){
 780:	83 f8 25             	cmp    $0x25,%eax
 783:	89 55 d4             	mov    %edx,-0x2c(%ebp)
        state = '%';
 786:	ba 25 00 00 00       	mov    $0x25,%edx
  state = 0;
  ap = (uint*)(void*)&fmt + 1;
  for(i = 0; fmt[i]; i++){
    c = fmt[i] & 0xff;
    if(state == 0){
      if(c == '%'){
 78b:	74 18                	je     7a5 <printf+0x55>
#include "user.h"

static void
putc(int fd, char c)
{
  write(fd, &c, 1);
 78d:	8d 45 e2             	lea    -0x1e(%ebp),%eax
 790:	83 ec 04             	sub    $0x4,%esp
 793:	88 5d e2             	mov    %bl,-0x1e(%ebp)
 796:	6a 01                	push   $0x1
 798:	50                   	push   %eax
 799:	57                   	push   %edi
 79a:	e8 53 fe ff ff       	call   5f2 <write>
 79f:	8b 55 d4             	mov    -0x2c(%ebp),%edx
 7a2:	83 c4 10             	add    $0x10,%esp
 7a5:	83 c6 01             	add    $0x1,%esi
  int c, i, state;
  uint *ap;

  state = 0;
  ap = (uint*)(void*)&fmt + 1;
  for(i = 0; fmt[i]; i++){
 7a8:	0f b6 5e ff          	movzbl -0x1(%esi),%ebx
 7ac:	84 db                	test   %bl,%bl
 7ae:	74 73                	je     823 <printf+0xd3>
    c = fmt[i] & 0xff;
    if(state == 0){
 7b0:	85 d2                	test   %edx,%edx
  uint *ap;

  state = 0;
  ap = (uint*)(void*)&fmt + 1;
  for(i = 0; fmt[i]; i++){
    c = fmt[i] & 0xff;
 7b2:	0f be cb             	movsbl %bl,%ecx
 7b5:	0f b6 c3             	movzbl %bl,%eax
    if(state == 0){
 7b8:	74 c6                	je     780 <printf+0x30>
      if(c == '%'){
        state = '%';
      } else {
        putc(fd, c);
      }
    } else if(state == '%'){
 7ba:	83 fa 25             	cmp    $0x25,%edx
 7bd:	75 e6                	jne    7a5 <printf+0x55>
      if(c == 'd'){
 7bf:	83 f8 64             	cmp    $0x64,%eax
 7c2:	0f 84 f8 00 00 00    	je     8c0 <printf+0x170>
        printint(fd, *ap, 10, 1);
        ap++;
      } else if(c == 'x' || c == 'p'){
 7c8:	81 e1 f7 00 00 00    	and    $0xf7,%ecx
 7ce:	83 f9 70             	cmp    $0x70,%ecx
 7d1:	74 5d                	je     830 <printf+0xe0>
        printint(fd, *ap, 16, 0);
        ap++;
      } else if(c == 's'){
 7d3:	83 f8 73             	cmp    $0x73,%eax
 7d6:	0f 84 84 00 00 00    	je     860 <printf+0x110>
          s = "(null)";
        while(*s != 0){
          putc(fd, *s);
          s++;
        }
      } else if(c == 'c'){
 7dc:	83 f8 63             	cmp    $0x63,%eax
 7df:	0f 84 ea 00 00 00    	je     8cf <printf+0x17f>
        putc(fd, *ap);
        ap++;
      } else if(c == '%'){
 7e5:	83 f8 25             	cmp    $0x25,%eax
 7e8:	0f 84 c2 00 00 00    	je     8b0 <printf+0x160>
#include "user.h"

static void
putc(int fd, char c)
{
  write(fd, &c, 1);
 7ee:	8d 45 e7             	lea    -0x19(%ebp),%eax
 7f1:	83 ec 04             	sub    $0x4,%esp
 7f4:	c6 45 e7 25          	movb   $0x25,-0x19(%ebp)
 7f8:	6a 01                	push   $0x1
 7fa:	50                   	push   %eax
 7fb:	57                   	push   %edi
 7fc:	e8 f1 fd ff ff       	call   5f2 <write>
 801:	83 c4 0c             	add    $0xc,%esp
 804:	8d 45 e6             	lea    -0x1a(%ebp),%eax
 807:	88 5d e6             	mov    %bl,-0x1a(%ebp)
 80a:	6a 01                	push   $0x1
 80c:	50                   	push   %eax
 80d:	57                   	push   %edi
 80e:	83 c6 01             	add    $0x1,%esi
 811:	e8 dc fd ff ff       	call   5f2 <write>
  int c, i, state;
  uint *ap;

  state = 0;
  ap = (uint*)(void*)&fmt + 1;
  for(i = 0; fmt[i]; i++){
 816:	0f b6 5e ff          	movzbl -0x1(%esi),%ebx
#include "user.h"

static void
putc(int fd, char c)
{
  write(fd, &c, 1);
 81a:	83 c4 10             	add    $0x10,%esp
      } else {
        // Unknown % sequence.  Print it to draw attention.
        putc(fd, '%');
        putc(fd, c);
      }
      state = 0;
 81d:	31 d2                	xor    %edx,%edx
  int c, i, state;
  uint *ap;

  state = 0;
  ap = (uint*)(void*)&fmt + 1;
  for(i = 0; fmt[i]; i++){
 81f:	84 db                	test   %bl,%bl
 821:	75 8d                	jne    7b0 <printf+0x60>
        putc(fd, c);
      }
      state = 0;
    }
  }
}
 823:	8d 65 f4             	lea    -0xc(%ebp),%esp
 826:	5b                   	pop    %ebx
 827:	5e                   	pop    %esi
 828:	5f                   	pop    %edi
 829:	5d                   	pop    %ebp
 82a:	c3                   	ret    
 82b:	90                   	nop
 82c:	8d 74 26 00          	lea    0x0(%esi,%eiz,1),%esi
    } else if(state == '%'){
      if(c == 'd'){
        printint(fd, *ap, 10, 1);
        ap++;
      } else if(c == 'x' || c == 'p'){
        printint(fd, *ap, 16, 0);
 830:	83 ec 0c             	sub    $0xc,%esp
 833:	b9 10 00 00 00       	mov    $0x10,%ecx
 838:	6a 00                	push   $0x0
 83a:	8b 5d d0             	mov    -0x30(%ebp),%ebx
 83d:	89 f8                	mov    %edi,%eax
 83f:	8b 13                	mov    (%ebx),%edx
 841:	e8 6a fe ff ff       	call   6b0 <printint>
        ap++;
 846:	89 d8                	mov    %ebx,%eax
 848:	83 c4 10             	add    $0x10,%esp
      } else {
        // Unknown % sequence.  Print it to draw attention.
        putc(fd, '%');
        putc(fd, c);
      }
      state = 0;
 84b:	31 d2                	xor    %edx,%edx
      if(c == 'd'){
        printint(fd, *ap, 10, 1);
        ap++;
      } else if(c == 'x' || c == 'p'){
        printint(fd, *ap, 16, 0);
        ap++;
 84d:	83 c0 04             	add    $0x4,%eax
 850:	89 45 d0             	mov    %eax,-0x30(%ebp)
 853:	e9 4d ff ff ff       	jmp    7a5 <printf+0x55>
 858:	90                   	nop
 859:	8d b4 26 00 00 00 00 	lea    0x0(%esi,%eiz,1),%esi
      } else if(c == 's'){
        s = (char*)*ap;
 860:	8b 45 d0             	mov    -0x30(%ebp),%eax
 863:	8b 18                	mov    (%eax),%ebx
        ap++;
 865:	83 c0 04             	add    $0x4,%eax
 868:	89 45 d0             	mov    %eax,-0x30(%ebp)
        if(s == 0)
          s = "(null)";
 86b:	b8 c1 0a 00 00       	mov    $0xac1,%eax
 870:	85 db                	test   %ebx,%ebx
 872:	0f 44 d8             	cmove  %eax,%ebx
        while(*s != 0){
 875:	0f b6 03             	movzbl (%ebx),%eax
 878:	84 c0                	test   %al,%al
 87a:	74 23                	je     89f <printf+0x14f>
 87c:	8d 74 26 00          	lea    0x0(%esi,%eiz,1),%esi
 880:	88 45 e3             	mov    %al,-0x1d(%ebp)
#include "user.h"

static void
putc(int fd, char c)
{
  write(fd, &c, 1);
 883:	8d 45 e3             	lea    -0x1d(%ebp),%eax
 886:	83 ec 04             	sub    $0x4,%esp
 889:	6a 01                	push   $0x1
        ap++;
        if(s == 0)
          s = "(null)";
        while(*s != 0){
          putc(fd, *s);
          s++;
 88b:	83 c3 01             	add    $0x1,%ebx
#include "user.h"

static void
putc(int fd, char c)
{
  write(fd, &c, 1);
 88e:	50                   	push   %eax
 88f:	57                   	push   %edi
 890:	e8 5d fd ff ff       	call   5f2 <write>
      } else if(c == 's'){
        s = (char*)*ap;
        ap++;
        if(s == 0)
          s = "(null)";
        while(*s != 0){
 895:	0f b6 03             	movzbl (%ebx),%eax
 898:	83 c4 10             	add    $0x10,%esp
 89b:	84 c0                	test   %al,%al
 89d:	75 e1                	jne    880 <printf+0x130>
      } else {
        // Unknown % sequence.  Print it to draw attention.
        putc(fd, '%');
        putc(fd, c);
      }
      state = 0;
 89f:	31 d2                	xor    %edx,%edx
 8a1:	e9 ff fe ff ff       	jmp    7a5 <printf+0x55>
 8a6:	8d 76 00             	lea    0x0(%esi),%esi
 8a9:	8d bc 27 00 00 00 00 	lea    0x0(%edi,%eiz,1),%edi
#include "user.h"

static void
putc(int fd, char c)
{
  write(fd, &c, 1);
 8b0:	83 ec 04             	sub    $0x4,%esp
 8b3:	88 5d e5             	mov    %bl,-0x1b(%ebp)
 8b6:	8d 45 e5             	lea    -0x1b(%ebp),%eax
 8b9:	6a 01                	push   $0x1
 8bb:	e9 4c ff ff ff       	jmp    80c <printf+0xbc>
      } else {
        putc(fd, c);
      }
    } else if(state == '%'){
      if(c == 'd'){
        printint(fd, *ap, 10, 1);
 8c0:	83 ec 0c             	sub    $0xc,%esp
 8c3:	b9 0a 00 00 00       	mov    $0xa,%ecx
 8c8:	6a 01                	push   $0x1
 8ca:	e9 6b ff ff ff       	jmp    83a <printf+0xea>
 8cf:	8b 5d d0             	mov    -0x30(%ebp),%ebx
#include "user.h"

static void
putc(int fd, char c)
{
  write(fd, &c, 1);
 8d2:	83 ec 04             	sub    $0x4,%esp
 8d5:	8b 03                	mov    (%ebx),%eax
 8d7:	6a 01                	push   $0x1
 8d9:	88 45 e4             	mov    %al,-0x1c(%ebp)
 8dc:	8d 45 e4             	lea    -0x1c(%ebp),%eax
 8df:	50                   	push   %eax
 8e0:	57                   	push   %edi
 8e1:	e8 0c fd ff ff       	call   5f2 <write>
 8e6:	e9 5b ff ff ff       	jmp    846 <printf+0xf6>
 8eb:	66 90                	xchg   %ax,%ax
 8ed:	66 90                	xchg   %ax,%ax
 8ef:	90                   	nop

000008f0 <free>:
static Header base;
static Header *freep;

void
free(void *ap)
{
 8f0:	55                   	push   %ebp
  Header *bp, *p;

  bp = (Header*)ap - 1;
  for(p = freep; !(bp > p && bp < p->s.ptr); p = p->s.ptr)
 8f1:	a1 e0 0d 00 00       	mov    0xde0,%eax
static Header base;
static Header *freep;

void
free(void *ap)
{
 8f6:	89 e5                	mov    %esp,%ebp
 8f8:	57                   	push   %edi
 8f9:	56                   	push   %esi
 8fa:	53                   	push   %ebx
 8fb:	8b 5d 08             	mov    0x8(%ebp),%ebx
  Header *bp, *p;

  bp = (Header*)ap - 1;
  for(p = freep; !(bp > p && bp < p->s.ptr); p = p->s.ptr)
    if(p >= p->s.ptr && (bp > p || bp < p->s.ptr))
 8fe:	8b 10                	mov    (%eax),%edx
void
free(void *ap)
{
  Header *bp, *p;

  bp = (Header*)ap - 1;
 900:	8d 4b f8             	lea    -0x8(%ebx),%ecx
  for(p = freep; !(bp > p && bp < p->s.ptr); p = p->s.ptr)
 903:	39 c8                	cmp    %ecx,%eax
 905:	73 19                	jae    920 <free+0x30>
 907:	89 f6                	mov    %esi,%esi
 909:	8d bc 27 00 00 00 00 	lea    0x0(%edi,%eiz,1),%edi
 910:	39 d1                	cmp    %edx,%ecx
 912:	72 1c                	jb     930 <free+0x40>
    if(p >= p->s.ptr && (bp > p || bp < p->s.ptr))
 914:	39 d0                	cmp    %edx,%eax
 916:	73 18                	jae    930 <free+0x40>
static Header base;
static Header *freep;

void
free(void *ap)
{
 918:	89 d0                	mov    %edx,%eax
  Header *bp, *p;

  bp = (Header*)ap - 1;
  for(p = freep; !(bp > p && bp < p->s.ptr); p = p->s.ptr)
 91a:	39 c8                	cmp    %ecx,%eax
    if(p >= p->s.ptr && (bp > p || bp < p->s.ptr))
 91c:	8b 10                	mov    (%eax),%edx
free(void *ap)
{
  Header *bp, *p;

  bp = (Header*)ap - 1;
  for(p = freep; !(bp > p && bp < p->s.ptr); p = p->s.ptr)
 91e:	72 f0                	jb     910 <free+0x20>
    if(p >= p->s.ptr && (bp > p || bp < p->s.ptr))
 920:	39 d0                	cmp    %edx,%eax
 922:	72 f4                	jb     918 <free+0x28>
 924:	39 d1                	cmp    %edx,%ecx
 926:	73 f0                	jae    918 <free+0x28>
 928:	90                   	nop
 929:	8d b4 26 00 00 00 00 	lea    0x0(%esi,%eiz,1),%esi
      break;
  if(bp + bp->s.size == p->s.ptr){
 930:	8b 73 fc             	mov    -0x4(%ebx),%esi
 933:	8d 3c f1             	lea    (%ecx,%esi,8),%edi
 936:	39 d7                	cmp    %edx,%edi
 938:	74 19                	je     953 <free+0x63>
    bp->s.size += p->s.ptr->s.size;
    bp->s.ptr = p->s.ptr->s.ptr;
  } else
    bp->s.ptr = p->s.ptr;
 93a:	89 53 f8             	mov    %edx,-0x8(%ebx)
  if(p + p->s.size == bp){
 93d:	8b 50 04             	mov    0x4(%eax),%edx
 940:	8d 34 d0             	lea    (%eax,%edx,8),%esi
 943:	39 f1                	cmp    %esi,%ecx
 945:	74 23                	je     96a <free+0x7a>
    p->s.size += bp->s.size;
    p->s.ptr = bp->s.ptr;
  } else
    p->s.ptr = bp;
 947:	89 08                	mov    %ecx,(%eax)
  freep = p;
 949:	a3 e0 0d 00 00       	mov    %eax,0xde0
}
 94e:	5b                   	pop    %ebx
 94f:	5e                   	pop    %esi
 950:	5f                   	pop    %edi
 951:	5d                   	pop    %ebp
 952:	c3                   	ret    
  bp = (Header*)ap - 1;
  for(p = freep; !(bp > p && bp < p->s.ptr); p = p->s.ptr)
    if(p >= p->s.ptr && (bp > p || bp < p->s.ptr))
      break;
  if(bp + bp->s.size == p->s.ptr){
    bp->s.size += p->s.ptr->s.size;
 953:	03 72 04             	add    0x4(%edx),%esi
 956:	89 73 fc             	mov    %esi,-0x4(%ebx)
    bp->s.ptr = p->s.ptr->s.ptr;
 959:	8b 10                	mov    (%eax),%edx
 95b:	8b 12                	mov    (%edx),%edx
 95d:	89 53 f8             	mov    %edx,-0x8(%ebx)
  } else
    bp->s.ptr = p->s.ptr;
  if(p + p->s.size == bp){
 960:	8b 50 04             	mov    0x4(%eax),%edx
 963:	8d 34 d0             	lea    (%eax,%edx,8),%esi
 966:	39 f1                	cmp    %esi,%ecx
 968:	75 dd                	jne    947 <free+0x57>
    p->s.size += bp->s.size;
 96a:	03 53 fc             	add    -0x4(%ebx),%edx
    p->s.ptr = bp->s.ptr;
  } else
    p->s.ptr = bp;
  freep = p;
 96d:	a3 e0 0d 00 00       	mov    %eax,0xde0
    bp->s.size += p->s.ptr->s.size;
    bp->s.ptr = p->s.ptr->s.ptr;
  } else
    bp->s.ptr = p->s.ptr;
  if(p + p->s.size == bp){
    p->s.size += bp->s.size;
 972:	89 50 04             	mov    %edx,0x4(%eax)
    p->s.ptr = bp->s.ptr;
 975:	8b 53 f8             	mov    -0x8(%ebx),%edx
 978:	89 10                	mov    %edx,(%eax)
  } else
    p->s.ptr = bp;
  freep = p;
}
 97a:	5b                   	pop    %ebx
 97b:	5e                   	pop    %esi
 97c:	5f                   	pop    %edi
 97d:	5d                   	pop    %ebp
 97e:	c3                   	ret    
 97f:	90                   	nop

00000980 <malloc>:
  return freep;
}

void*
malloc(uint nbytes)
{
 980:	55                   	push   %ebp
 981:	89 e5                	mov    %esp,%ebp
 983:	57                   	push   %edi
 984:	56                   	push   %esi
 985:	53                   	push   %ebx
 986:	83 ec 0c             	sub    $0xc,%esp
  Header *p, *prevp;
  uint nunits;

  nunits = (nbytes + sizeof(Header) - 1)/sizeof(Header) + 1;
 989:	8b 45 08             	mov    0x8(%ebp),%eax
  if((prevp = freep) == 0){
 98c:	8b 15 e0 0d 00 00    	mov    0xde0,%edx
malloc(uint nbytes)
{
  Header *p, *prevp;
  uint nunits;

  nunits = (nbytes + sizeof(Header) - 1)/sizeof(Header) + 1;
 992:	8d 78 07             	lea    0x7(%eax),%edi
 995:	c1 ef 03             	shr    $0x3,%edi
 998:	83 c7 01             	add    $0x1,%edi
  if((prevp = freep) == 0){
 99b:	85 d2                	test   %edx,%edx
 99d:	0f 84 a3 00 00 00    	je     a46 <malloc+0xc6>
 9a3:	8b 02                	mov    (%edx),%eax
 9a5:	8b 48 04             	mov    0x4(%eax),%ecx
    base.s.ptr = freep = prevp = &base;
    base.s.size = 0;
  }
  for(p = prevp->s.ptr; ; prevp = p, p = p->s.ptr){
    if(p->s.size >= nunits){
 9a8:	39 cf                	cmp    %ecx,%edi
 9aa:	76 74                	jbe    a20 <malloc+0xa0>
 9ac:	81 ff 00 10 00 00    	cmp    $0x1000,%edi
 9b2:	be 00 10 00 00       	mov    $0x1000,%esi
 9b7:	8d 1c fd 00 00 00 00 	lea    0x0(,%edi,8),%ebx
 9be:	0f 43 f7             	cmovae %edi,%esi
 9c1:	ba 00 80 00 00       	mov    $0x8000,%edx
 9c6:	81 ff ff 0f 00 00    	cmp    $0xfff,%edi
 9cc:	0f 46 da             	cmovbe %edx,%ebx
 9cf:	eb 10                	jmp    9e1 <malloc+0x61>
 9d1:	8d b4 26 00 00 00 00 	lea    0x0(%esi,%eiz,1),%esi
  nunits = (nbytes + sizeof(Header) - 1)/sizeof(Header) + 1;
  if((prevp = freep) == 0){
    base.s.ptr = freep = prevp = &base;
    base.s.size = 0;
  }
  for(p = prevp->s.ptr; ; prevp = p, p = p->s.ptr){
 9d8:	8b 02                	mov    (%edx),%eax
    if(p->s.size >= nunits){
 9da:	8b 48 04             	mov    0x4(%eax),%ecx
 9dd:	39 cf                	cmp    %ecx,%edi
 9df:	76 3f                	jbe    a20 <malloc+0xa0>
        p->s.size = nunits;
      }
      freep = prevp;
      return (void*)(p + 1);
    }
    if(p == freep)
 9e1:	39 05 e0 0d 00 00    	cmp    %eax,0xde0
 9e7:	89 c2                	mov    %eax,%edx
 9e9:	75 ed                	jne    9d8 <malloc+0x58>
  char *p;
  Header *hp;

  if(nu < 4096)
    nu = 4096;
  p = sbrk(nu * sizeof(Header));
 9eb:	83 ec 0c             	sub    $0xc,%esp
 9ee:	53                   	push   %ebx
 9ef:	e8 66 fc ff ff       	call   65a <sbrk>
  if(p == (char*)-1)
 9f4:	83 c4 10             	add    $0x10,%esp
 9f7:	83 f8 ff             	cmp    $0xffffffff,%eax
 9fa:	74 1c                	je     a18 <malloc+0x98>
    return 0;
  hp = (Header*)p;
  hp->s.size = nu;
 9fc:	89 70 04             	mov    %esi,0x4(%eax)
  free((void*)(hp + 1));
 9ff:	83 ec 0c             	sub    $0xc,%esp
 a02:	83 c0 08             	add    $0x8,%eax
 a05:	50                   	push   %eax
 a06:	e8 e5 fe ff ff       	call   8f0 <free>
  return freep;
 a0b:	8b 15 e0 0d 00 00    	mov    0xde0,%edx
      }
      freep = prevp;
      return (void*)(p + 1);
    }
    if(p == freep)
      if((p = morecore(nunits)) == 0)
 a11:	83 c4 10             	add    $0x10,%esp
 a14:	85 d2                	test   %edx,%edx
 a16:	75 c0                	jne    9d8 <malloc+0x58>
        return 0;
 a18:	31 c0                	xor    %eax,%eax
 a1a:	eb 1c                	jmp    a38 <malloc+0xb8>
 a1c:	8d 74 26 00          	lea    0x0(%esi,%eiz,1),%esi
    base.s.ptr = freep = prevp = &base;
    base.s.size = 0;
  }
  for(p = prevp->s.ptr; ; prevp = p, p = p->s.ptr){
    if(p->s.size >= nunits){
      if(p->s.size == nunits)
 a20:	39 cf                	cmp    %ecx,%edi
 a22:	74 1c                	je     a40 <malloc+0xc0>
        prevp->s.ptr = p->s.ptr;
      else {
        p->s.size -= nunits;
 a24:	29 f9                	sub    %edi,%ecx
 a26:	89 48 04             	mov    %ecx,0x4(%eax)
        p += p->s.size;
 a29:	8d 04 c8             	lea    (%eax,%ecx,8),%eax
        p->s.size = nunits;
 a2c:	89 78 04             	mov    %edi,0x4(%eax)
      }
      freep = prevp;
 a2f:	89 15 e0 0d 00 00    	mov    %edx,0xde0
      return (void*)(p + 1);
 a35:	83 c0 08             	add    $0x8,%eax
    }
    if(p == freep)
      if((p = morecore(nunits)) == 0)
        return 0;
  }
}
 a38:	8d 65 f4             	lea    -0xc(%ebp),%esp
 a3b:	5b                   	pop    %ebx
 a3c:	5e                   	pop    %esi
 a3d:	5f                   	pop    %edi
 a3e:	5d                   	pop    %ebp
 a3f:	c3                   	ret    
    base.s.size = 0;
  }
  for(p = prevp->s.ptr; ; prevp = p, p = p->s.ptr){
    if(p->s.size >= nunits){
      if(p->s.size == nunits)
        prevp->s.ptr = p->s.ptr;
 a40:	8b 08                	mov    (%eax),%ecx
 a42:	89 0a                	mov    %ecx,(%edx)
 a44:	eb e9                	jmp    a2f <malloc+0xaf>
  Header *p, *prevp;
  uint nunits;

  nunits = (nbytes + sizeof(Header) - 1)/sizeof(Header) + 1;
  if((prevp = freep) == 0){
    base.s.ptr = freep = prevp = &base;
 a46:	c7 05 e0 0d 00 00 e4 	movl   $0xde4,0xde0
 a4d:	0d 00 00 
 a50:	c7 05 e4 0d 00 00 e4 	movl   $0xde4,0xde4
 a57:	0d 00 00 
    base.s.size = 0;
 a5a:	b8 e4 0d 00 00       	mov    $0xde4,%eax
 a5f:	c7 05 e8 0d 00 00 00 	movl   $0x0,0xde8
 a66:	00 00 00 
 a69:	e9 3e ff ff ff       	jmp    9ac <malloc+0x2c>
